; Function Attrs: mustprogress uwtable
define void @_ZNK5arrow11StructArray14GetFieldByNameERKNSt7__cxx1112basic_stringIcSt11char_traitsIcESaIcEEE(ptr noalias nocapture writeonly sret(%"class.std::shared_ptr.0") align 8 %agg.result, ptr nocapture noundef nonnull readonly align 8 dereferenceable(56) %this, ptr noundef nonnull align 8 dereferenceable(32) %name) local_unnamed_addr #0 align 2 personality ptr @__gxx_personality_v0 {
entry:
  %data_.i = getelementptr inbounds i8, ptr %this, i64 8
  %0 = load ptr, ptr %data_.i, align 8
  %1 = load ptr, ptr %0, align 8
  %call2 = tail call noundef i32 @_ZNK5arrow10StructType13GetFieldIndexERKNSt7__cxx1112basic_stringIcSt11char_traitsIcESaIcEEE(ptr noundef nonnull align 8 dereferenceable(80) %1, ptr noundef nonnull align 8 dereferenceable(32) %name)
  %cmp = icmp eq i32 %call2, -1
  br i1 %cmp, label %cond.true, label %cond.false

cond.true:                                        ; preds = %entry
  tail call void @llvm.memset.p0.i64(ptr noundef nonnull align 8 dereferenceable(16) %agg.result, i8 0, i64 16, i1 false)
  br label %cond.end

cond.false:                                       ; preds = %entry
  %call3 = tail call noundef nonnull align 8 dereferenceable(16) ptr @_ZNK5arrow11StructArray5fieldEi(ptr noundef nonnull align 8 dereferenceable(56) %this, i32 noundef %call2)
  %2 = load <2 x ptr>, ptr %call3, align 8
  store <2 x ptr> %2, ptr %agg.result, align 8
  %3 = extractelement <2 x ptr> %2, i64 1
  %cmp.not.i.i.i = icmp eq ptr %3, null
  br i1 %cmp.not.i.i.i, label %cond.end, label %if.then.i.i.i

if.then.i.i.i:                                    ; preds = %cond.false
  %_M_use_count.i.i.i.i = getelementptr inbounds i8, ptr %3, i64 8
  %4 = load i8, ptr @__libc_single_threaded, align 1
  %tobool.i.i.not.i.i.i.i = icmp eq i8 %4, 0
  br i1 %tobool.i.i.not.i.i.i.i, label %if.else.i.i.i.i.i, label %if.then.i.i.i.i.i

if.then.i.i.i.i.i:                                ; preds = %if.then.i.i.i
  %5 = load i32, ptr %_M_use_count.i.i.i.i, align 4
  %add.i.i.i.i.i = add nsw i32 %5, 1
  store i32 %add.i.i.i.i.i, ptr %_M_use_count.i.i.i.i, align 4
  br label %cond.end

if.else.i.i.i.i.i:                                ; preds = %if.then.i.i.i
  %6 = atomicrmw volatile add ptr %_M_use_count.i.i.i.i, i32 1 acq_rel, align 4
  br label %cond.end

cond.end:                                         ; preds = %if.else.i.i.i.i.i, %if.then.i.i.i.i.i, %cond.false, %cond.true
  ret void
}